; ModuleID = 'source-C-CXX/10/514.c'
source_filename = "source-C-CXX/10/514.c"
target datalayout = "e-m:e-p270:32:32-p271:32:32-p272:64:64-i64:64-f80:128-n8:16:32:64-S128"
target triple = "x86_64-pc-linux-gnu"

@.str = private unnamed_addr constant [9 x i8] c"%d %d %d\00", align 1
@.str.1 = private unnamed_addr constant [3 x i8] c"%d\00", align 1

; Function Attrs: nofree nounwind sspstrong uwtable
define dso_local i32 @main(i32 %0, i8** nocapture readnone %1) local_unnamed_addr #0 {
  %3 = alloca i32, align 4
  %4 = alloca i32, align 4
  %5 = alloca i32, align 4
  %6 = bitcast i32* %3 to i8*
  call void @llvm.lifetime.start.p0i8(i64 4, i8* nonnull %6) #3
  %7 = bitcast i32* %4 to i8*
  call void @llvm.lifetime.start.p0i8(i64 4, i8* nonnull %7) #3
  %8 = bitcast i32* %5 to i8*
  call void @llvm.lifetime.start.p0i8(i64 4, i8* nonnull %8) #3
  %9 = call i32 (i8*, ...) @__isoc99_scanf(i8* getelementptr inbounds ([9 x i8], [9 x i8]* @.str, i64 0, i64 0), i32* nonnull %3, i32* nonnull %4, i32* nonnull %5)
  %10 = load i32, i32* %3, align 4, !tbaa !5
  %11 = and i32 %10, 3
  %12 = icmp ne i32 %11, 0
  %13 = srem i32 %10, 100
  %14 = icmp eq i32 %13, 0
  %15 = or i1 %12, %14
  br i1 %15, label %16, label %20

16:                                               ; preds = %2
  %17 = srem i32 %10, 400
  %18 = icmp eq i32 %17, 0
  %19 = select i1 %18, i32 29, i32 28
  br label %20

20:                                               ; preds = %16, %2
  %21 = phi i32 [ 29, %2 ], [ %19, %16 ]
  %22 = load i32, i32* %4, align 4, !tbaa !5
  %23 = icmp eq i32 %22, 1
  %24 = load i32, i32* %5, align 4
  %25 = select i1 %23, i32 %24, i32 undef
  %26 = icmp eq i32 %22, 2
  %27 = add nsw i32 %24, 31
  %28 = select i1 %26, i32 %27, i32 %25
  %29 = icmp eq i32 %22, 3
  %30 = add i32 %24, %21
  %31 = add i32 %30, 31
  %32 = select i1 %29, i32 %31, i32 %28
  %33 = icmp eq i32 %22, 4
  %34 = add i32 %30, 62
  %35 = select i1 %33, i32 %34, i32 %32
  %36 = icmp eq i32 %22, 5
  %37 = add i32 %30, 92
  %38 = select i1 %36, i32 %37, i32 %35
  %39 = icmp eq i32 %22, 6
  %40 = add i32 %30, 123
  %41 = select i1 %39, i32 %40, i32 %38
  %42 = icmp eq i32 %22, 7
  %43 = add i32 %30, 153
  %44 = select i1 %42, i32 %43, i32 %41
  %45 = icmp eq i32 %22, 8
  %46 = add i32 %30, 184
  %47 = select i1 %45, i32 %46, i32 %44
  %48 = icmp eq i32 %22, 9
  %49 = add i32 %30, 215
  %50 = select i1 %48, i32 %49, i32 %47
  %51 = icmp eq i32 %22, 10
  %52 = add i32 %30, 245
  %53 = select i1 %51, i32 %52, i32 %50
  %54 = icmp eq i32 %22, 11
  %55 = add i32 %30, 276
  %56 = select i1 %54, i32 %55, i32 %53
  %57 = icmp eq i32 %22, 12
  %58 = add i32 %30, 306
  %59 = select i1 %57, i32 %58, i32 %56
  %60 = call i32 (i8*, ...) @printf(i8* nonnull dereferenceable(1) getelementptr inbounds ([3 x i8], [3 x i8]* @.str.1, i64 0, i64 0), i32 %59)
  call void @llvm.lifetime.end.p0i8(i64 4, i8* nonnull %8) #3
  call void @llvm.lifetime.end.p0i8(i64 4, i8* nonnull %7) #3
  call void @llvm.lifetime.end.p0i8(i64 4, i8* nonnull %6) #3
  ret i32 0
}

; Function Attrs: argmemonly mustprogress nofree nosync nounwind willreturn
declare void @llvm.lifetime.start.p0i8(i64 immarg, i8* nocapture) #1

; Function Attrs: nofree nounwind
declare noundef i32 @__isoc99_scanf(i8* nocapture noundef readonly, ...) local_unnamed_addr #2

; Function Attrs: nofree nounwind
declare noundef i32 @printf(i8* nocapture noundef readonly, ...) local_unnamed_addr #2

; Function Attrs: argmemonly mustprogress nofree nosync nounwind willreturn
declare void @llvm.lifetime.end.p0i8(i64 immarg, i8* nocapture) #1


!llvm.module.flags = !{!0, !1, !2, !3}
!llvm.ident = !{!4}

!0 = !{i32 1, !"wchar_size", i32 4}
!1 = !{i32 7, !"PIC Level", i32 2}
!2 = !{i32 7, !"PIE Level", i32 2}
!3 = !{i32 7, !"uwtable", i32 1}
!4 = !{!"clang version 13.0.0"}
!5 = !{!6, !6, i64 0}
!6 = !{!"int", !7, i64 0}
!7 = !{!"omnipotent char", !8, i64 0}
!8 = !{!"Simple C/C++ TBAA"}
